; Function Attrs: nofree norecurse nosync nounwind memory(argmem: readwrite) uwtable
define internal void @SDL_ConvertMonoTo41(ptr noundef writeonly captures(none) %0, ptr noundef readonly captures(none) %1, i32 noundef %2) #5 {
  %.not18 = icmp eq i32 %2, 0
  br i1 %.not18, label %._crit_edge, label %.lr.ph.preheader

.lr.ph.preheader:                                 ; preds = %3
  %4 = add nsw i32 %2, -1
  %5 = mul nsw i32 %4, 5
  %6 = sext i32 %5 to i64
  %7 = getelementptr inbounds float, ptr %0, i64 %6
  %8 = sext i32 %4 to i64
  %9 = getelementptr inbounds float, ptr %1, i64 %8
  br label %.lr.ph

.lr.ph:                                           ; preds = %.lr.ph.preheader, %.lr.ph
  %.021 = phi ptr [ %17, %.lr.ph ], [ %7, %.lr.ph.preheader ]
  %.01620 = phi i32 [ %15, %.lr.ph ], [ %2, %.lr.ph.preheader ]
  %.01719 = phi ptr [ %16, %.lr.ph ], [ %9, %.lr.ph.preheader ]
  %10 = load float, ptr %.01719, align 4
  %11 = getelementptr inbounds nuw i8, ptr %.021, i64 16
  store float 0.000000e+00, ptr %11, align 4
  %12 = getelementptr inbounds nuw i8, ptr %.021, i64 12
  store float 0.000000e+00, ptr %12, align 4
  %13 = getelementptr inbounds nuw i8, ptr %.021, i64 8
  store float 0.000000e+00, ptr %13, align 4
  %14 = getelementptr inbounds nuw i8, ptr %.021, i64 4
  store float %10, ptr %14, align 4
  store float %10, ptr %.021, align 4
  %15 = add nsw i32 %.01620, -1
  %16 = getelementptr inbounds i8, ptr %.01719, i64 -4
  %17 = getelementptr inbounds i8, ptr %.021, i64 -20
  %.not = icmp eq i32 %15, 0
  br i1 %.not, label %._crit_edge, label %.lr.ph, !llvm.loop !54

._crit_edge:                                      ; preds = %.lr.ph, %3
  ret void
}